ccopy_reg
_reconstructor
p0
(cgoogle.oauth2.credentials
Credentials
p1
c__builtin__
object
p2
Ntp3
Rp4
(dp5
S'_token_uri'
p6
Vhttps://oauth2.googleapis.com/token
p7
sS'_scopes'
p8
(lp9
S'https://www.googleapis.com/auth/calendar.readonly'
p10
asS'_id_token'
p11
NsS'token'
p12
Vya29.GlxCB-Te5Lms5eWujVudkoMFtOYpjkoAe4iZC2wjE7fx9AHHxlISARvl-E8cq3Z7-owVKgREfytoDaowAlt9BySCBs1sGKgSStdqyfrgt-i0IAtKty3Cz36EBlokFQ
p13
sS'_refresh_token'
p14
V1/MU4ZNxKZPX7dJKizS81HYBFPGywtIuMteDTrsFERxNM
p15
sS'_client_secret'
p16
VykOt7BtRgnuZ5pPxLTE-H8U6
p17
sS'_client_id'
p18
V224810662238-rvcgqe94bt4ic5tb6qhrshmh43jecga0.apps.googleusercontent.com
p19
sS'expiry'
p20
cdatetime
datetime
p21
(S'\x07\xe3\x07\x0b\r\x1d\x11\x01d\x8b'
p22
tp23
Rp24
sb.